(dp1
Vbody
p2
V"Lorem ipsum  sit amet, consectetur adipisicing elit, sed do eiusmod tempor incididunt ut labore et dolore magna aliqua. Ut enim ad minim veniam, quis nostrud exercitation laboris nisi ut aliquip ex libris ex ea commodo consequat. Duis aute irure dolor in reprehenderit in voluptate velit esse cillum eu fugiat nulla pariatur. Excepteur sint cupidatat non proident, sunt in  qui officia deserunt habeas corpus mollit anim id est laborum.
p3
sVstyle
p4
Vgeneric
p5
sS'__L__USER'
p6
S'joe'
p7
sVtitle
p8
VLorem ipsum
p9
sVabstract
p10
VAbstract here.
p11
sVauthors
p12
VCicero
p13
sVdate
p14
V43 B.C.
p15
sS'__L__DATE'
p16
S'2008/04/22 05:30:44'
p17
s.